ccopy_reg
_reconstructor
p0
(csklearn.linear_model.base
LinearRegression
p1
c__builtin__
object
p2
Ntp3
Rp4
(dp5
S'normalize'
p6
I00
sS'n_jobs'
p7
I1
sS'rank_'
p8
I4
sS'fit_intercept'
p9
I01
sS'_residues'
p10
cnumpy.core.multiarray
scalar
p11
(cnumpy
dtype
p12
(S'f8'
p13
I0
I1
tp14
Rp15
(I3
S'<'
p16
NNNI-1
I-1
I0
tp17
bS'\x8d@\xb3\xe1\xb31NB'
p18
tp19
Rp20
sS'coef_'
p21
cnumpy.core.multiarray
_reconstruct
p22
(cnumpy
ndarray
p23
(I0
tp24
S'b'
p25
tp26
Rp27
(I1
(L4L
tp28
g15
I00
S'@\xec\x8e\xe24\xd5\xe7@\xf0h\xb50q\xfb\x9e@P\xa1\xe5\x90=\x99\x81@\x00=\xd4\x0fW\xbfu\xc0'
p29
tp30
bsS'copy_X'
p31
I01
sS'intercept_'
p32
g11
(g15
S'<\x85~{\xe7N\xf9@'
p33
tp34
Rp35
sS'singular_'
p36
g22
(g23
(I0
tp37
g25
tp38
Rp39
(I1
(L4L
tp40
g15
I00
S'\x9b)\x05MD\xceS@L\xd4\xb3Ks$Q@\xf08\x8f\x8f?DN@\x83\xd1\xe0\xbc_\x8cB@'
p41
tp42
bsb.